target datalayout = "e-m:e-p270:32:32-p271:32:32-p272:64:64-i64:64-i128:128-f80:128-n8:16:32:64-S128"
target triple = "x86_64-pc-linux-gnu"

%struct.evp_pkey_method_st = type { i32, i32, ptr, ptr, ptr, ptr, ptr, ptr, ptr, ptr, ptr, ptr, ptr, ptr, ptr, ptr, ptr, ptr, ptr, ptr, ptr, ptr, ptr, ptr, ptr, ptr, ptr, ptr, ptr, ptr, ptr, ptr, ptr }

; Function Attrs: nounwind uwtable
define void @EVP_PKEY_meth_get_verify(ptr noundef %0, ptr noundef %1, ptr noundef %2) #0 {
  %4 = alloca ptr, align 8
  %5 = alloca ptr, align 8
  %6 = alloca ptr, align 8
  store ptr %0, ptr %4, align 8, !tbaa !7
  store ptr %1, ptr %5, align 8, !tbaa !12
  store ptr %2, ptr %6, align 8, !tbaa !12
  %7 = load ptr, ptr %5, align 8, !tbaa !12
  %8 = icmp ne ptr %7, null
  br i1 %8, label %9, label %14

9:                                                ; preds = %3
  %10 = load ptr, ptr %4, align 8, !tbaa !7
  %11 = getelementptr inbounds nuw %struct.evp_pkey_method_st, ptr %10, i32 0, i32 11
  %12 = load ptr, ptr %11, align 8, !tbaa !130
  %13 = load ptr, ptr %5, align 8, !tbaa !12
  store ptr %12, ptr %13, align 8, !tbaa !12
  br label %14

14:                                               ; preds = %9, %3
  %15 = load ptr, ptr %6, align 8, !tbaa !12
  %16 = icmp ne ptr %15, null
  br i1 %16, label %17, label %22

17:                                               ; preds = %14
  %18 = load ptr, ptr %4, align 8, !tbaa !7
  %19 = getelementptr inbounds nuw %struct.evp_pkey_method_st, ptr %18, i32 0, i32 12
  %20 = load ptr, ptr %19, align 8, !tbaa !131
  %21 = load ptr, ptr %6, align 8, !tbaa !12
  store ptr %20, ptr %21, align 8, !tbaa !12
  br label %22

22:                                               ; preds = %17, %14
  ret void
}